; ModuleID = '54/663.c'
source_filename = "54/663.c"
target datalayout = "e-m:e-p270:32:32-p271:32:32-p272:64:64-i64:64-f80:128-n8:16:32:64-S128"
target triple = "x86_64-pc-linux-gnu"

@n = common dso_local global i32 0, align 4
@k = common dso_local global i32 0, align 4
@.str = private unnamed_addr constant [5 x i8] c"%d%d\00", align 1
@.str.1 = private unnamed_addr constant [3 x i8] c"%d\00", align 1

; Function Attrs: noinline nounwind uwtable
define dso_local i32 @sum(i32 %0) #0 {
  %2 = alloca i32, align 4
  %3 = alloca i32, align 4
  %4 = alloca i32, align 4
  %5 = alloca i32, align 4
  %6 = alloca i32, align 4
  %7 = alloca [100 x i32], align 16
  store i32 %0, i32* %2, align 4
  store i32 0, i32* %3, align 4
  %8 = load i32, i32* %2, align 4
  %9 = icmp eq i32 %8, 1
  br i1 %9, label %10, label %67

10:                                               ; preds = %1
  store i32 1, i32* %3, align 4
  br label %11

11:                                               ; preds = %63, %10
  store i32 0, i32* %5, align 4
  %12 = load i32, i32* %3, align 4
  %13 = load i32, i32* @n, align 4
  %14 = mul nsw i32 %12, %13
  %15 = load i32, i32* @k, align 4
  %16 = add nsw i32 %14, %15
  %17 = getelementptr inbounds [100 x i32], [100 x i32]* %7, i64 0, i64 1
  store i32 %16, i32* %17, align 4
  store i32 1, i32* %6, align 4
  br label %18

18:                                               ; preds = %50, %11
  %19 = load i32, i32* %6, align 4
  %20 = load i32, i32* @n, align 4
  %21 = icmp slt i32 %19, %20
  br i1 %21, label %22, label %53

22:                                               ; preds = %18
  %23 = load i32, i32* %6, align 4
  %24 = sext i32 %23 to i64
  %25 = getelementptr inbounds [100 x i32], [100 x i32]* %7, i64 0, i64 %24
  %26 = load i32, i32* %25, align 4
  %27 = load i32, i32* @n, align 4
  %28 = sub nsw i32 %27, 1
  %29 = srem i32 %26, %28
  %30 = icmp ne i32 %29, 0
  br i1 %30, label %31, label %34

31:                                               ; preds = %22
  %32 = load i32, i32* %5, align 4
  %33 = add nsw i32 %32, 1
  store i32 %33, i32* %5, align 4
  br label %34

34:                                               ; preds = %31, %22
  %35 = load i32, i32* %6, align 4
  %36 = sext i32 %35 to i64
  %37 = getelementptr inbounds [100 x i32], [100 x i32]* %7, i64 0, i64 %36
  %38 = load i32, i32* %37, align 4
  %39 = load i32, i32* @n, align 4
  %40 = mul nsw i32 %38, %39
  %41 = load i32, i32* @n, align 4
  %42 = sub nsw i32 %41, 1
  %43 = sdiv i32 %40, %42
  %44 = load i32, i32* @k, align 4
  %45 = add nsw i32 %43, %44
  %46 = load i32, i32* %6, align 4
  %47 = add nsw i32 %46, 1
  %48 = sext i32 %47 to i64
  %49 = getelementptr inbounds [100 x i32], [100 x i32]* %7, i64 0, i64 %48
  store i32 %45, i32* %49, align 4
  br label %50

50:                                               ; preds = %34
  %51 = load i32, i32* %6, align 4
  %52 = add nsw i32 %51, 1
  store i32 %52, i32* %6, align 4
  br label %18

53:                                               ; preds = %18
  %54 = load i32, i32* %5, align 4
  %55 = icmp eq i32 %54, 0
  br i1 %55, label %56, label %62

56:                                               ; preds = %53
  %57 = load i32, i32* %3, align 4
  %58 = load i32, i32* @n, align 4
  %59 = mul nsw i32 %57, %58
  %60 = load i32, i32* @k, align 4
  %61 = add nsw i32 %59, %60
  store i32 %61, i32* %4, align 4
  br label %66

62:                                               ; preds = %53
  br label %63

63:                                               ; preds = %62
  %64 = load i32, i32* %3, align 4
  %65 = add nsw i32 %64, 1
  store i32 %65, i32* %3, align 4
  br label %11

66:                                               ; preds = %56
  br label %78

67:                                               ; preds = %1
  %68 = load i32, i32* %2, align 4
  %69 = sub nsw i32 %68, 1
  %70 = call i32 @sum(i32 %69)
  %71 = load i32, i32* @n, align 4
  %72 = mul nsw i32 %70, %71
  %73 = load i32, i32* @n, align 4
  %74 = sub nsw i32 %73, 1
  %75 = sdiv i32 %72, %74
  %76 = load i32, i32* @k, align 4
  %77 = add nsw i32 %75, %76
  store i32 %77, i32* %4, align 4
  br label %78

78:                                               ; preds = %67, %66
  %79 = load i32, i32* %4, align 4
  ret i32 %79
}

; Function Attrs: noinline nounwind uwtable
define dso_local void @main() #0 {
  %1 = call i32 (i8*, ...) @__isoc99_scanf(i8* getelementptr inbounds ([5 x i8], [5 x i8]* @.str, i64 0, i64 0), i32* @n, i32* @k)
  %2 = load i32, i32* @n, align 4
  %3 = call i32 @sum(i32 %2)
  %4 = call i32 (i8*, ...) @printf(i8* getelementptr inbounds ([3 x i8], [3 x i8]* @.str.1, i64 0, i64 0), i32 %3)
  ret void
}

declare dso_local i32 @__isoc99_scanf(i8*, ...) #1

declare dso_local i32 @printf(i8*, ...) #1


!llvm.module.flags = !{!0}
!llvm.ident = !{!1}

!0 = !{i32 1, !"wchar_size", i32 4}
!1 = !{!"clang version 10.0.0-4ubuntu1 "}
